	.file	"main.cpp"
	.text
.Ltext0:
	.local	_ZStL8__ioinit
	.comm	_ZStL8__ioinit,1,1
	.section	.rodata
.LC0:
	.string	"Input natural nubmer: "
.LC1:
	.string	"Wrong input!"
.LC2:
	.string	"List of natural dividers:"
	.text
	.globl	main
	.type	main, @function
main:
.LFB1795:
	.file 1 "Lab1-GCC_FLAGS/_1/src/main.cpp"
	.loc 1 4 0
	.cfi_startproc
	pushq	%rbp
	.cfi_def_cfa_offset 16
	.cfi_offset 6, -16
	movq	%rsp, %rbp
	.cfi_def_cfa_register 6
	subq	$32, %rsp
	.loc 1 4 0
	movq	%fs:40, %rax
	movq	%rax, -8(%rbp)
	xorl	%eax, %eax
	.loc 1 6 0
	leaq	.LC0(%rip), %rsi
	leaq	_ZSt4cout(%rip), %rdi
	call	_ZStlsISt11char_traitsIcEERSt13basic_ostreamIcT_ES5_PKc@PLT
	.loc 1 7 0
	leaq	-20(%rbp), %rax
	movq	%rax, %rsi
	leaq	_ZSt3cin(%rip), %rdi
	call	_ZNSirsERi@PLT
.L6:
	.loc 1 8 0
	leaq	16+_ZSt3cin(%rip), %rdi
	call	_ZNKSt9basic_iosIcSt11char_traitsIcEE4failEv@PLT
	testb	%al, %al
	jne	.L2
	.loc 1 8 0 is_stmt 0 discriminator 3
	movl	-20(%rbp), %eax
	testl	%eax, %eax
	jns	.L3
.L2:
	.loc 1 8 0 discriminator 4
	movl	$1, %eax
	jmp	.L4
.L3:
	.loc 1 8 0 discriminator 5
	movl	$0, %eax
.L4:
	.loc 1 8 0 discriminator 7
	testb	%al, %al
	je	.L5
	.loc 1 10 0 is_stmt 1
	leaq	.LC1(%rip), %rsi
	leaq	_ZSt4cout(%rip), %rdi
	call	_ZStlsISt11char_traitsIcEERSt13basic_ostreamIcT_ES5_PKc@PLT
	movq	%rax, %rdx
	movq	_ZSt4endlIcSt11char_traitsIcEERSt13basic_ostreamIT_T0_ES6_@GOTPCREL(%rip), %rax
	movq	%rax, %rsi
	movq	%rdx, %rdi
	call	_ZNSolsEPFRSoS_E@PLT
	.loc 1 11 0
	movl	$0, %esi
	leaq	16+_ZSt3cin(%rip), %rdi
	call	_ZNSt9basic_iosIcSt11char_traitsIcEE5clearESt12_Ios_Iostate@PLT
	.loc 1 12 0
	movl	$10, %edx
	movl	$255, %esi
	leaq	_ZSt3cin(%rip), %rdi
	call	_ZNSi6ignoreEli@PLT
	.loc 1 13 0
	leaq	.LC0(%rip), %rsi
	leaq	_ZSt4cout(%rip), %rdi
	call	_ZStlsISt11char_traitsIcEERSt13basic_ostreamIcT_ES5_PKc@PLT
	.loc 1 14 0
	leaq	-20(%rbp), %rax
	movq	%rax, %rsi
	leaq	_ZSt3cin(%rip), %rdi
	call	_ZNSirsERi@PLT
	.loc 1 8 0
	jmp	.L6
.L5:
	.loc 1 16 0
	movl	-20(%rbp), %eax
	movl	%eax, %edx
	shrl	$31, %edx
	addl	%edx, %eax
	sarl	%eax
	addl	$1, %eax
	movl	%eax, -12(%rbp)
	.loc 1 17 0
	leaq	.LC2(%rip), %rsi
	leaq	_ZSt4cout(%rip), %rdi
	call	_ZStlsISt11char_traitsIcEERSt13basic_ostreamIcT_ES5_PKc@PLT
	movq	%rax, %rdx
	movq	_ZSt4endlIcSt11char_traitsIcEERSt13basic_ostreamIT_T0_ES6_@GOTPCREL(%rip), %rax
	movq	%rax, %rsi
	movq	%rdx, %rdi
	call	_ZNSolsEPFRSoS_E@PLT
.LBB2:
	.loc 1 18 0
	movl	$1, -16(%rbp)
.L9:
	.loc 1 18 0 is_stmt 0 discriminator 1
	movl	-16(%rbp), %eax
	cmpl	-12(%rbp), %eax
	jge	.L7
	.loc 1 20 0 is_stmt 1
	movl	-20(%rbp), %eax
	cltd
	idivl	-16(%rbp)
	movl	%edx, %eax
	testl	%eax, %eax
	jne	.L8
	.loc 1 21 0
	movl	-16(%rbp), %eax
	movl	%eax, %esi
	leaq	_ZSt4cout(%rip), %rdi
	call	_ZNSolsEi@PLT
	movq	%rax, %rdx
	movq	_ZSt4endlIcSt11char_traitsIcEERSt13basic_ostreamIT_T0_ES6_@GOTPCREL(%rip), %rax
	movq	%rax, %rsi
	movq	%rdx, %rdi
	call	_ZNSolsEPFRSoS_E@PLT
.L8:
	.loc 1 18 0 discriminator 2
	addl	$1, -16(%rbp)
	jmp	.L9
.L7:
.LBE2:
	.loc 1 23 0
	movl	-20(%rbp), %eax
	movl	%eax, %esi
	leaq	_ZSt4cout(%rip), %rdi
	call	_ZNSolsEi@PLT
	movq	%rax, %rdx
	movq	_ZSt4endlIcSt11char_traitsIcEERSt13basic_ostreamIT_T0_ES6_@GOTPCREL(%rip), %rax
	movq	%rax, %rsi
	movq	%rdx, %rdi
	call	_ZNSolsEPFRSoS_E@PLT
	.loc 1 24 0
	movl	$0, %eax
	.loc 1 25 0
	movq	-8(%rbp), %rcx
	xorq	%fs:40, %rcx
	je	.L11
	call	__stack_chk_fail@PLT
.L11:
	leave
	.cfi_def_cfa 7, 8
	ret
	.cfi_endproc
.LFE1795:
	.size	main, .-main
	.type	_Z41__static_initialization_and_destruction_0ii, @function
_Z41__static_initialization_and_destruction_0ii:
.LFB2305:
	.loc 1 25 0
	.cfi_startproc
	pushq	%rbp
	.cfi_def_cfa_offset 16
	.cfi_offset 6, -16
	movq	%rsp, %rbp
	.cfi_def_cfa_register 6
	subq	$16, %rsp
	movl	%edi, -4(%rbp)
	movl	%esi, -8(%rbp)
	.loc 1 25 0
	cmpl	$1, -4(%rbp)
	jne	.L14
	.loc 1 25 0 is_stmt 0 discriminator 1
	cmpl	$65535, -8(%rbp)
	jne	.L14
	.file 2 "/usr/include/c++/7/iostream"
	.loc 2 74 0 is_stmt 1
	leaq	_ZStL8__ioinit(%rip), %rdi
	call	_ZNSt8ios_base4InitC1Ev@PLT
	leaq	__dso_handle(%rip), %rdx
	leaq	_ZStL8__ioinit(%rip), %rsi
	movq	_ZNSt8ios_base4InitD1Ev@GOTPCREL(%rip), %rax
	movq	%rax, %rdi
	call	__cxa_atexit@PLT
.L14:
	.loc 1 25 0
	nop
	leave
	.cfi_def_cfa 7, 8
	ret
	.cfi_endproc
.LFE2305:
	.size	_Z41__static_initialization_and_destruction_0ii, .-_Z41__static_initialization_and_destruction_0ii
	.type	_GLOBAL__sub_I_main, @function
_GLOBAL__sub_I_main:
.LFB2306:
	.loc 1 25 0
	.cfi_startproc
	pushq	%rbp
	.cfi_def_cfa_offset 16
	.cfi_offset 6, -16
	movq	%rsp, %rbp
	.cfi_def_cfa_register 6
	.loc 1 25 0
	movl	$65535, %esi
	movl	$1, %edi
	call	_Z41__static_initialization_and_destruction_0ii
	popq	%rbp
	.cfi_def_cfa 7, 8
	ret
	.cfi_endproc
.LFE2306:
	.size	_GLOBAL__sub_I_main, .-_GLOBAL__sub_I_main
	.section	.init_array,"aw"
	.align 8
	.quad	_GLOBAL__sub_I_main
	.text
.Letext0:
	.file 3 "/usr/include/c++/7/cwchar"
	.file 4 "/usr/include/c++/7/new"
	.file 5 "/usr/include/c++/7/bits/exception_ptr.h"
	.file 6 "/usr/include/c++/7/type_traits"
	.file 7 "/usr/include/x86_64-linux-gnu/c++/7/bits/c++config.h"
	.file 8 "/usr/include/c++/7/bits/stl_pair.h"
	.file 9 "/usr/include/c++/7/debug/debug.h"
	.file 10 "/usr/include/c++/7/bits/char_traits.h"
	.file 11 "/usr/include/c++/7/cstdint"
	.file 12 "/usr/include/c++/7/clocale"
	.file 13 "/usr/include/c++/7/limits"
	.file 14 "/usr/include/c++/7/string_view"
	.file 15 "/usr/include/c++/7/bits/basic_string.h"
	.file 16 "/usr/include/c++/7/cstdlib"
	.file 17 "/usr/include/c++/7/cstdio"
	.file 18 "/usr/include/c++/7/system_error"
	.file 19 "/usr/include/c++/7/bits/ios_base.h"
	.file 20 "/usr/include/c++/7/cwctype"
	.file 21 "/usr/include/c++/7/istream"
	.file 22 "/usr/include/c++/7/iosfwd"
	.file 23 "/usr/include/c++/7/ostream"
	.file 24 "/usr/include/c++/7/bits/predefined_ops.h"
	.file 25 "/usr/include/c++/7/ext/new_allocator.h"
	.file 26 "/usr/include/c++/7/ext/numeric_traits.h"
	.file 27 "/usr/lib/gcc/x86_64-linux-gnu/7/include/stddef.h"
	.file 28 "<built-in>"
	.file 29 "/usr/include/x86_64-linux-gnu/bits/types/wint_t.h"
	.file 30 "/usr/include/x86_64-linux-gnu/bits/types/__mbstate_t.h"
	.file 31 "/usr/include/x86_64-linux-gnu/bits/types/mbstate_t.h"
	.file 32 "/usr/include/x86_64-linux-gnu/bits/types/__FILE.h"
	.file 33 "/usr/include/x86_64-linux-gnu/bits/libio.h"
	.file 34 "/usr/include/x86_64-linux-gnu/bits/types/FILE.h"
	.file 35 "/usr/include/wchar.h"
	.file 36 "/usr/include/x86_64-linux-gnu/bits/types/struct_tm.h"
	.file 37 "/usr/include/x86_64-linux-gnu/bits/types.h"
	.file 38 "/usr/include/x86_64-linux-gnu/bits/stdint-intn.h"
	.file 39 "/usr/include/x86_64-linux-gnu/bits/stdint-uintn.h"
	.file 40 "/usr/include/stdint.h"
	.file 41 "/usr/include/locale.h"
	.file 42 "/usr/include/time.h"
	.file 43 "/usr/include/x86_64-linux-gnu/c++/7/bits/atomic_word.h"
	.file 44 "/usr/include/stdlib.h"
	.file 45 "/usr/include/x86_64-linux-gnu/bits/_G_config.h"
	.file 46 "/usr/include/stdio.h"
	.file 47 "/usr/include/x86_64-linux-gnu/bits/sys_errlist.h"
	.file 48 "/usr/include/errno.h"
	.file 49 "/usr/include/x86_64-linux-gnu/bits/wctype-wchar.h"
	.file 50 "/usr/include/wctype.h"
	.section	.note.GNU-stack,"",@progbits
