	.file	"main.cpp"
	.text
.Ltext0:
	.section	.text._ZNKSt5ctypeIcE8do_widenEc,"axG",@progbits,_ZNKSt5ctypeIcE8do_widenEc,comdat
	.align 2
	.p2align 4,,15
	.weak	_ZNKSt5ctypeIcE8do_widenEc
	.type	_ZNKSt5ctypeIcE8do_widenEc, @function
_ZNKSt5ctypeIcE8do_widenEc:
.LFB1635:
	.file 1 "/usr/include/c++/7/bits/locale_facets.h"
	.loc 1 1082 0
	.cfi_startproc
.LVL0:
	.loc 1 1083 0
	movl	%esi, %eax
	ret
	.cfi_endproc
.LFE1635:
	.size	_ZNKSt5ctypeIcE8do_widenEc, .-_ZNKSt5ctypeIcE8do_widenEc
	.section	.text._ZNSt11char_traitsIcE6lengthEPKc,"axG",@progbits,_ZNSt11char_traitsIcE6lengthEPKc,comdat
	.p2align 4,,15
	.weak	_ZNSt11char_traitsIcE6lengthEPKc
	.type	_ZNSt11char_traitsIcE6lengthEPKc, @function
_ZNSt11char_traitsIcE6lengthEPKc:
.LFB423:
	.file 2 "/usr/include/c++/7/bits/char_traits.h"
	.loc 2 314 0
	.cfi_startproc
.LVL1:
	.loc 2 320 0
	jmp	strlen@PLT
.LVL2:
	.cfi_endproc
.LFE423:
	.size	_ZNSt11char_traitsIcE6lengthEPKc, .-_ZNSt11char_traitsIcE6lengthEPKc
	.section	.rodata.str1.1,"aMS",@progbits,1
.LC0:
	.string	"Input natural nubmer: "
.LC1:
	.string	"Wrong input!"
.LC2:
	.string	"List of natural dividers:"
	.section	.text.startup,"ax",@progbits
	.p2align 4,,15
	.globl	main
	.type	main, @function
main:
.LFB1878:
	.file 3 "Lab1-GCC_FLAGS/_1/src/main.cpp"
	.loc 3 4 0
	.cfi_startproc
	pushq	%r14
	.cfi_def_cfa_offset 16
	.cfi_offset 14, -16
	pushq	%r13
	.cfi_def_cfa_offset 24
	.cfi_offset 13, -24
.LBB138:
.LBB139:
	.file 4 "/usr/include/c++/7/ostream"
	.loc 4 562 0
	leaq	.LC0(%rip), %rdi
.LBE139:
.LBE138:
	.loc 3 4 0
	pushq	%r12
	.cfi_def_cfa_offset 32
	.cfi_offset 12, -32
	pushq	%rbp
	.cfi_def_cfa_offset 40
	.cfi_offset 6, -40
	leaq	_ZNKSt5ctypeIcE8do_widenEc(%rip), %r13
	pushq	%rbx
	.cfi_def_cfa_offset 48
	.cfi_offset 3, -48
	leaq	_ZSt4cout(%rip), %rbp
	subq	$16, %rsp
	.cfi_def_cfa_offset 64
	.loc 3 4 0
	movq	%fs:40, %rax
	movq	%rax, 8(%rsp)
	xorl	%eax, %eax
.LVL3:
.LBB142:
.LBB140:
	.loc 4 562 0
	call	_ZNSt11char_traitsIcE6lengthEPKc
.LVL4:
	.loc 4 561 0
	leaq	.LC0(%rip), %rsi
	leaq	_ZSt4cout(%rip), %rdi
	movq	%rax, %rdx
.LBE140:
.LBE142:
	.loc 3 7 0
	leaq	4(%rsp), %r12
.LBB143:
.LBB141:
	.loc 4 561 0
	call	_ZSt16__ostream_insertIcSt11char_traitsIcEERSt13basic_ostreamIT_T0_ES6_PKS3_l@PLT
.LVL5:
.LBE141:
.LBE143:
	.loc 3 7 0
	leaq	_ZSt3cin(%rip), %rdi
	movq	%r12, %rsi
	call	_ZNSirsERi@PLT
.LVL6:
	jmp	.L16
.LVL7:
	.p2align 4,,10
	.p2align 3
.L34:
	movsbl	67(%rbx), %esi
.LVL8:
.L15:
.LBB144:
.LBB145:
.LBB146:
	.loc 4 591 0
	leaq	_ZSt4cout(%rip), %rdi
	call	_ZNSo3putEc@PLT
.LVL9:
.LBB147:
.LBB148:
	.loc 4 613 0
	movq	%rax, %rdi
	call	_ZNSo5flushEv@PLT
.LVL10:
.LBE148:
.LBE147:
.LBE146:
.LBE145:
.LBE144:
	.loc 3 11 0
	leaq	16+_ZSt3cin(%rip), %rdi
.LVL11:
	xorl	%esi, %esi
	call	_ZNSt9basic_iosIcSt11char_traitsIcEE5clearESt12_Ios_Iostate@PLT
.LVL12:
	.loc 3 12 0
	leaq	_ZSt3cin(%rip), %rdi
	movl	$10, %edx
	movl	$255, %esi
	call	_ZNSi6ignoreEli@PLT
.LVL13:
.LBB159:
.LBB160:
	.loc 4 561 0
	leaq	.LC0(%rip), %rsi
	leaq	_ZSt4cout(%rip), %rdi
	movl	$22, %edx
	call	_ZSt16__ostream_insertIcSt11char_traitsIcEERSt13basic_ostreamIT_T0_ES6_PKS3_l@PLT
.LVL14:
.LBE160:
.LBE159:
	.loc 3 14 0
	leaq	_ZSt3cin(%rip), %rdi
	movq	%r12, %rsi
	call	_ZNSirsERi@PLT
.LVL15:
.L16:
	.loc 3 8 0
	testb	$5, 48+_ZSt3cin(%rip)
	jne	.L5
	.loc 3 8 0 is_stmt 0 discriminator 3
	movl	4(%rsp), %eax
	testl	%eax, %eax
	jns	.L6
.L5:
.LBB161:
.LBB162:
	.loc 4 561 0 is_stmt 1
	leaq	.LC1(%rip), %rsi
	leaq	_ZSt4cout(%rip), %rdi
	movl	$12, %edx
	call	_ZSt16__ostream_insertIcSt11char_traitsIcEERSt13basic_ostreamIT_T0_ES6_PKS3_l@PLT
.LVL16:
.LBE162:
.LBE161:
.LBB163:
.LBB158:
.LBB157:
	.loc 4 591 0
	movq	0(%rbp), %rax
.LBB149:
.LBB150:
	.file 5 "/usr/include/c++/7/bits/basic_ios.h"
	.loc 5 450 0
	movq	-24(%rax), %rax
	movq	240(%rbp,%rax), %rbx
.LVL17:
.LBB151:
.LBB152:
	.loc 5 49 0
	testq	%rbx, %rbx
	je	.L7
.LVL18:
.LBE152:
.LBE151:
.LBB153:
.LBB154:
	.loc 1 874 0
	cmpb	$0, 56(%rbx)
	jne	.L34
.LVL19:
.LBB155:
.LBB156:
	.loc 1 876 0
	movq	%rbx, %rdi
	call	_ZNKSt5ctypeIcE13_M_widen_initEv@PLT
.LVL20:
	.loc 1 877 0
	movq	(%rbx), %rax
	movl	$10, %esi
	movq	48(%rax), %rax
	cmpq	%r13, %rax
	je	.L15
	movq	%rbx, %rdi
	call	*%rax
.LVL21:
	movsbl	%al, %esi
	jmp	.L15
.LVL22:
	.p2align 4,,10
	.p2align 3
.L6:
.LBE156:
.LBE155:
.LBE154:
.LBE153:
.LBE150:
.LBE149:
.LBE157:
.LBE158:
.LBE163:
.LBB164:
.LBB165:
	.loc 4 562 0
	leaq	.LC2(%rip), %rdi
.LBE165:
.LBE164:
	.loc 3 16 0
	sarl	%eax
	movl	%eax, %r12d
.LVL23:
.LBB167:
.LBB166:
	.loc 4 562 0
	call	_ZNSt11char_traitsIcE6lengthEPKc
.LVL24:
	.loc 4 561 0
	leaq	.LC2(%rip), %rsi
	leaq	_ZSt4cout(%rip), %rdi
	movq	%rax, %rdx
	call	_ZSt16__ostream_insertIcSt11char_traitsIcEERSt13basic_ostreamIT_T0_ES6_PKS3_l@PLT
.LVL25:
.LBE166:
.LBE167:
.LBB168:
.LBB169:
.LBB170:
	.loc 4 591 0
	movq	_ZSt4cout(%rip), %rax
.LBB171:
.LBB172:
	.loc 5 450 0
	movq	-24(%rax), %rax
	movq	240(%rbp,%rax), %rbx
.LVL26:
.LBB173:
.LBB174:
	.loc 5 49 0
	testq	%rbx, %rbx
	je	.L7
.LVL27:
.LBE174:
.LBE173:
.LBB176:
.LBB177:
	.loc 1 874 0
	cmpb	$0, 56(%rbx)
	je	.L10
	.loc 1 875 0
	movzbl	67(%rbx), %eax
.LVL28:
.L11:
.LBE177:
.LBE176:
.LBE172:
.LBE171:
	.loc 4 591 0
	leaq	_ZSt4cout(%rip), %rdi
	movsbl	%al, %esi
	call	_ZNSo3putEc@PLT
.LVL29:
.LBB184:
.LBB185:
	.loc 4 613 0
	movq	%rax, %rdi
	call	_ZNSo5flushEv@PLT
.LVL30:
.LBE185:
.LBE184:
.LBE170:
.LBE169:
.LBE168:
.LBB189:
	.loc 3 18 0
	testl	%r12d, %r12d
	je	.L35
	movl	4(%rsp), %esi
	movl	$1, %ebx
	leaq	_ZNKSt5ctypeIcE8do_widenEc(%rip), %r13
	jmp	.L21
.LVL31:
	.p2align 4,,10
	.p2align 3
.L17:
	.loc 3 18 0 is_stmt 0 discriminator 2
	addl	$1, %ebx
.LVL32:
	cmpl	%ebx, %r12d
	jl	.L20
.LVL33:
.L21:
	.loc 3 20 0 is_stmt 1
	movl	%esi, %eax
	cltd
	idivl	%ebx
	testl	%edx, %edx
	jne	.L17
	.loc 3 21 0
	leaq	_ZSt4cout(%rip), %rdi
	movl	%ebx, %esi
	call	_ZNSolsEi@PLT
.LVL34:
	movq	%rax, %r14
.LVL35:
.LBB190:
.LBB191:
.LBB192:
	.loc 4 591 0
	movq	(%rax), %rax
.LVL36:
.LBB193:
.LBB194:
	.loc 5 450 0
	movq	-24(%rax), %rax
.LVL37:
	movq	240(%r14,%rax), %rbp
.LVL38:
.LBB195:
.LBB196:
	.loc 5 49 0
	testq	%rbp, %rbp
	je	.L7
.LVL39:
.LBE196:
.LBE195:
.LBB197:
.LBB198:
	.loc 1 874 0
	cmpb	$0, 56(%rbp)
	je	.L18
	.loc 1 875 0
	movzbl	67(%rbp), %eax
.LVL40:
.L19:
.LBE198:
.LBE197:
.LBE194:
.LBE193:
	.loc 4 591 0
	movsbl	%al, %esi
	movq	%r14, %rdi
.LBE192:
.LBE191:
.LBE190:
	.loc 3 18 0
	addl	$1, %ebx
.LVL41:
.LBB211:
.LBB209:
.LBB207:
	.loc 4 591 0
	call	_ZNSo3putEc@PLT
.LVL42:
.LBB204:
.LBB205:
	.loc 4 613 0
	movq	%rax, %rdi
	call	_ZNSo5flushEv@PLT
.LVL43:
.LBE205:
.LBE204:
.LBE207:
.LBE209:
.LBE211:
	.loc 3 18 0
	cmpl	%ebx, %r12d
	movl	4(%rsp), %esi
	jge	.L21
.LVL44:
.L20:
.LBE189:
	.loc 3 23 0
	leaq	_ZSt4cout(%rip), %rdi
	call	_ZNSolsEi@PLT
.LVL45:
.LBB213:
.LBB214:
	.loc 4 113 0
	movq	%rax, %rdi
	call	_ZSt4endlIcSt11char_traitsIcEERSt13basic_ostreamIT_T0_ES6_@PLT
.LVL46:
.LBE214:
.LBE213:
	.loc 3 25 0
	xorl	%eax, %eax
	movq	8(%rsp), %rcx
	xorq	%fs:40, %rcx
	jne	.L36
	addq	$16, %rsp
	.cfi_remember_state
	.cfi_def_cfa_offset 48
	popq	%rbx
	.cfi_def_cfa_offset 40
	popq	%rbp
	.cfi_def_cfa_offset 32
	popq	%r12
	.cfi_def_cfa_offset 24
.LVL47:
	popq	%r13
	.cfi_def_cfa_offset 16
	popq	%r14
	.cfi_def_cfa_offset 8
	ret
.LVL48:
	.p2align 4,,10
	.p2align 3
.L18:
	.cfi_restore_state
.LBB215:
.LBB212:
.LBB210:
.LBB208:
.LBB206:
.LBB203:
.LBB202:
.LBB201:
.LBB199:
.LBB200:
	.loc 1 876 0
	movq	%rbp, %rdi
	call	_ZNKSt5ctypeIcE13_M_widen_initEv@PLT
.LVL49:
	.loc 1 877 0
	movq	0(%rbp), %rax
	movq	48(%rax), %rdx
	movl	$10, %eax
	cmpq	%r13, %rdx
	je	.L19
	movl	$10, %esi
	movq	%rbp, %rdi
	call	*%rdx
.LVL50:
	jmp	.L19
.LVL51:
.L10:
.LBE200:
.LBE199:
.LBE201:
.LBE202:
.LBE203:
.LBE206:
.LBE208:
.LBE210:
.LBE212:
.LBE215:
.LBB216:
.LBB188:
.LBB187:
.LBB186:
.LBB183:
.LBB181:
.LBB180:
.LBB178:
.LBB179:
	.loc 1 876 0
	movq	%rbx, %rdi
	call	_ZNKSt5ctypeIcE13_M_widen_initEv@PLT
.LVL52:
	.loc 1 877 0
	movq	(%rbx), %rax
	movl	$10, %esi
	movq	%rbx, %rdi
	call	*48(%rax)
.LVL53:
	jmp	.L11
.LVL54:
.L35:
	movl	4(%rsp), %esi
	jmp	.L20
.LVL55:
.L7:
.LBE179:
.LBE178:
.LBE180:
.LBE181:
.LBB182:
.LBB175:
	.loc 5 50 0
	call	_ZSt16__throw_bad_castv@PLT
.LVL56:
.L36:
.LBE175:
.LBE182:
.LBE183:
.LBE186:
.LBE187:
.LBE188:
.LBE216:
	.loc 3 25 0
	call	__stack_chk_fail@PLT
.LVL57:
	.cfi_endproc
.LFE1878:
	.size	main, .-main
	.p2align 4,,15
	.type	_GLOBAL__sub_I_main, @function
_GLOBAL__sub_I_main:
.LFB2376:
	.loc 3 25 0
	.cfi_startproc
.LVL58:
.LBB217:
.LBB218:
	.file 6 "/usr/include/c++/7/iostream"
	.loc 6 74 0
	leaq	_ZStL8__ioinit(%rip), %rdi
.LBE218:
.LBE217:
	.loc 3 25 0
	subq	$8, %rsp
	.cfi_def_cfa_offset 16
.LBB221:
.LBB219:
	.loc 6 74 0
	call	_ZNSt8ios_base4InitC1Ev@PLT
.LVL59:
	movq	_ZNSt8ios_base4InitD1Ev@GOTPCREL(%rip), %rdi
	leaq	__dso_handle(%rip), %rdx
	leaq	_ZStL8__ioinit(%rip), %rsi
.LBE219:
.LBE221:
	.loc 3 25 0
	addq	$8, %rsp
	.cfi_def_cfa_offset 8
.LBB222:
.LBB220:
	.loc 6 74 0
	jmp	__cxa_atexit@PLT
.LVL60:
.LBE220:
.LBE222:
	.cfi_endproc
.LFE2376:
	.size	_GLOBAL__sub_I_main, .-_GLOBAL__sub_I_main
	.section	.init_array,"aw"
	.align 8
	.quad	_GLOBAL__sub_I_main
	.local	_ZStL8__ioinit
	.comm	_ZStL8__ioinit,1,1
	.text
.Letext0:
	.file 7 "/usr/include/c++/7/cwchar"
	.file 8 "/usr/include/c++/7/new"
	.file 9 "/usr/include/c++/7/bits/exception_ptr.h"
	.file 10 "/usr/include/c++/7/type_traits"
	.file 11 "/usr/include/x86_64-linux-gnu/c++/7/bits/c++config.h"
	.file 12 "/usr/include/c++/7/bits/stl_pair.h"
	.file 13 "/usr/include/c++/7/debug/debug.h"
	.file 14 "/usr/include/c++/7/cstdint"
	.file 15 "/usr/include/c++/7/clocale"
	.file 16 "/usr/include/c++/7/limits"
	.file 17 "/usr/include/c++/7/string_view"
	.file 18 "/usr/include/c++/7/bits/basic_string.h"
	.file 19 "/usr/include/c++/7/cstdlib"
	.file 20 "/usr/include/c++/7/cstdio"
	.file 21 "/usr/include/c++/7/system_error"
	.file 22 "/usr/include/c++/7/bits/ios_base.h"
	.file 23 "/usr/include/c++/7/cwctype"
	.file 24 "/usr/include/c++/7/bits/ostream.tcc"
	.file 25 "/usr/include/c++/7/istream"
	.file 26 "/usr/include/c++/7/iosfwd"
	.file 27 "/usr/include/c++/7/bits/basic_ios.tcc"
	.file 28 "/usr/include/c++/7/bits/ostream_insert.h"
	.file 29 "/usr/include/c++/7/bits/functexcept.h"
	.file 30 "/usr/include/c++/7/bits/predefined_ops.h"
	.file 31 "/usr/include/c++/7/ext/new_allocator.h"
	.file 32 "/usr/include/c++/7/ext/numeric_traits.h"
	.file 33 "/usr/lib/gcc/x86_64-linux-gnu/7/include/stddef.h"
	.file 34 "<built-in>"
	.file 35 "/usr/include/x86_64-linux-gnu/bits/types/wint_t.h"
	.file 36 "/usr/include/x86_64-linux-gnu/bits/types/__mbstate_t.h"
	.file 37 "/usr/include/x86_64-linux-gnu/bits/types/mbstate_t.h"
	.file 38 "/usr/include/x86_64-linux-gnu/bits/types/__FILE.h"
	.file 39 "/usr/include/x86_64-linux-gnu/bits/libio.h"
	.file 40 "/usr/include/x86_64-linux-gnu/bits/types/FILE.h"
	.file 41 "/usr/include/wchar.h"
	.file 42 "/usr/include/x86_64-linux-gnu/bits/wchar2.h"
	.file 43 "/usr/include/x86_64-linux-gnu/bits/types/struct_tm.h"
	.file 44 "/usr/include/x86_64-linux-gnu/bits/types.h"
	.file 45 "/usr/include/x86_64-linux-gnu/bits/stdint-intn.h"
	.file 46 "/usr/include/x86_64-linux-gnu/bits/stdint-uintn.h"
	.file 47 "/usr/include/stdint.h"
	.file 48 "/usr/include/locale.h"
	.file 49 "/usr/include/time.h"
	.file 50 "/usr/include/x86_64-linux-gnu/c++/7/bits/atomic_word.h"
	.file 51 "/usr/include/stdlib.h"
	.file 52 "/usr/include/x86_64-linux-gnu/bits/stdlib-float.h"
	.file 53 "/usr/include/x86_64-linux-gnu/bits/stdlib-bsearch.h"
	.file 54 "/usr/include/x86_64-linux-gnu/bits/stdlib.h"
	.file 55 "/usr/include/x86_64-linux-gnu/bits/_G_config.h"
	.file 56 "/usr/include/stdio.h"
	.file 57 "/usr/include/x86_64-linux-gnu/bits/sys_errlist.h"
	.file 58 "/usr/include/x86_64-linux-gnu/bits/stdio2.h"
	.file 59 "/usr/include/x86_64-linux-gnu/bits/stdio.h"
	.file 60 "/usr/include/errno.h"
	.file 61 "/usr/include/x86_64-linux-gnu/bits/wctype-wchar.h"
	.file 62 "/usr/include/wctype.h"
	.section	.note.GNU-stack,"",@progbits
